target datalayout = "e-m:e-p270:32:32-p271:32:32-p272:64:64-i64:64-i128:128-f80:128-n8:16:32:64-S128"
target triple = "x86_64-pc-linux-gnu"

; Function Attrs: nounwind uwtable
define void @Acec_BoxFreeP(ptr noundef %0) #0 {
  %2 = alloca ptr, align 8
  store ptr %0, ptr %2, align 8
  %3 = load ptr, ptr %2, align 8
  %4 = load ptr, ptr %3, align 8
  %5 = icmp ne ptr %4, null
  br i1 %5, label %6, label %9

6:                                                ; preds = %1
  %7 = load ptr, ptr %2, align 8
  %8 = load ptr, ptr %7, align 8
  call void @Acec_BoxFree(ptr noundef %8)
  br label %9

9:                                                ; preds = %6, %1
  %10 = load ptr, ptr %2, align 8
  store ptr null, ptr %10, align 8
  ret void
}