; Function Attrs: nounwind uwtable
define void @Acec_BoxFreeP(ptr noundef captures(none) %0) local_unnamed_addr #0 {
  %2 = load ptr, ptr %0, align 8
  %.not = icmp eq ptr %2, null
  br i1 %.not, label %4, label %3

3:                                                ; preds = %1
  tail call void @Acec_BoxFree(ptr noundef nonnull %2)
  br label %4

4:                                                ; preds = %3, %1
  store ptr null, ptr %0, align 8
  ret void
}